; Function Attrs: nounwind uwtable
define internal void @dissect_pnf_rf_value(ptr noundef %0, ptr noundef %1) #0 {
  %3 = alloca i32, align 4
  %4 = alloca i32, align 4
  %5 = load i32, ptr @hf_nfapi_number_of_rfs, align 4
  %6 = call ptr @ptvcursor_add_ret_uint(ptr noundef %0, i32 noundef %5, i32 noundef 2, i32 noundef 0, ptr noundef nonnull %4) #7
  %7 = load i32, ptr @ett_nfapi_pnf_phy_rf_config, align 4
  %8 = load i32, ptr %4, align 4
  %.not.i = icmp eq i32 %8, 0
  br i1 %.not.i, label %dissect_array_value.exit, label %9

9:                                                ; preds = %2
  %10 = call ptr (ptr, i32, i32, ptr, ...) @ptvcursor_add_text_with_subtree(ptr noundef %0, i32 noundef -1, i32 noundef %7, ptr noundef nonnull @.str.1839, ptr noundef nonnull @.str.1868) #7
  br label %11

11:                                               ; preds = %dissect_pnf_rf_config_value.exit, %9
  %12 = phi i32 [ 0, %9 ], [ %36, %dissect_pnf_rf_config_value.exit ]
  %.016.i = phi i16 [ 0, %9 ], [ %35, %dissect_pnf_rf_config_value.exit ]
  %13 = call ptr (ptr, i32, i32, ptr, ...) @ptvcursor_add_text_with_subtree(ptr noundef %0, i32 noundef -1, i32 noundef %7, ptr noundef nonnull @.str.1840, i32 noundef %12) #7
  call void @llvm.lifetime.start.p0(i64 4, ptr nonnull %3)
  %14 = load i32, ptr @hf_nfapi_rf_config_index, align 4
  %15 = call ptr @ptvcursor_add(ptr noundef %0, i32 noundef %14, i32 noundef 2, i32 noundef 0) #7
  %16 = load i32, ptr @hf_nfapi_band, align 4
  %17 = call ptr @ptvcursor_add(ptr noundef %0, i32 noundef %16, i32 noundef 2, i32 noundef 0) #7
  %18 = load i32, ptr @hf_nfapi_maximum_transmit_power, align 4
  %19 = call ptr @ptvcursor_add(ptr noundef %0, i32 noundef %18, i32 noundef 2, i32 noundef 0) #7
  %20 = load i32, ptr @hf_nfapi_minimum_transmit_power, align 4
  %21 = call ptr @ptvcursor_add(ptr noundef %0, i32 noundef %20, i32 noundef 2, i32 noundef 0) #7
  %22 = load i32, ptr @hf_nfapi_number_of_antennas_supported, align 4
  %23 = call ptr @ptvcursor_add_ret_uint(ptr noundef %0, i32 noundef %22, i32 noundef 1, i32 noundef 0, ptr noundef nonnull %3) #7
  %24 = load i32, ptr %3, align 4
  switch i32 %24, label %25 [
    i32 1, label %dissect_pnf_rf_config_value.exit
    i32 2, label %dissect_pnf_rf_config_value.exit
    i32 4, label %dissect_pnf_rf_config_value.exit
    i32 8, label %dissect_pnf_rf_config_value.exit
  ]

25:                                               ; preds = %11
  %26 = call ptr (ptr, ptr, ptr, ptr, ...) @expert_add_info_format(ptr noundef %1, ptr noundef %23, ptr noundef nonnull @ei_invalid_range, ptr noundef nonnull @.str.1869) #7
  br label %dissect_pnf_rf_config_value.exit

dissect_pnf_rf_config_value.exit:                 ; preds = %11, %11, %11, %11, %25
  %27 = load i32, ptr @hf_nfapi_minimum_downlink_frequency, align 4
  %28 = call ptr @ptvcursor_add(ptr noundef %0, i32 noundef %27, i32 noundef 4, i32 noundef 0) #7
  %29 = load i32, ptr @hf_nfapi_maximum_downlink_frequency, align 4
  %30 = call ptr @ptvcursor_add(ptr noundef %0, i32 noundef %29, i32 noundef 4, i32 noundef 0) #7
  %31 = load i32, ptr @hf_nfapi_minimum_uplink_frequency, align 4
  %32 = call ptr @ptvcursor_add(ptr noundef %0, i32 noundef %31, i32 noundef 4, i32 noundef 0) #7
  %33 = load i32, ptr @hf_nfapi_maximum_uplink_frequency, align 4
  %34 = call ptr @ptvcursor_add(ptr noundef %0, i32 noundef %33, i32 noundef 4, i32 noundef 0) #7
  call void @llvm.lifetime.end.p0(i64 4, ptr nonnull %3)
  call void @ptvcursor_pop_subtree(ptr noundef %0) #7
  %35 = add i16 %.016.i, 1
  %36 = zext i16 %35 to i32
  %37 = icmp ugt i32 %8, %36
  br i1 %37, label %11, label %38, !llvm.loop !4

38:                                               ; preds = %dissect_pnf_rf_config_value.exit
  call void @ptvcursor_pop_subtree(ptr noundef %0) #7
  br label %dissect_array_value.exit

dissect_array_value.exit:                         ; preds = %2, %38
  ret void
}